target datalayout = "e-m:e-p270:32:32-p271:32:32-p272:64:64-i64:64-i128:128-f80:128-n8:16:32:64-S128"
target triple = "x86_64-pc-linux-gnu"

%"struct.p2t::Point" = type { double, double, %"class.std::vector" }
%"class.std::vector" = type { %"struct.std::_Vector_base" }
%"struct.std::_Vector_base" = type { %"struct.std::_Vector_base<p2t::Edge *, std::allocator<p2t::Edge *>>::_Vector_impl" }
%"struct.std::_Vector_base<p2t::Edge *, std::allocator<p2t::Edge *>>::_Vector_impl" = type { %"struct.std::_Vector_base<p2t::Edge *, std::allocator<p2t::Edge *>>::_Vector_impl_data" }
%"struct.std::_Vector_base<p2t::Edge *, std::allocator<p2t::Edge *>>::_Vector_impl_data" = type { ptr, ptr, ptr }
%"struct.p2t::Node" = type { ptr, ptr, ptr, ptr, double }
%"class.p2t::SweepContext" = type { %"class.std::vector", %"struct.p2t::SweepContext::Basin", %"struct.p2t::SweepContext::EdgeEvent", %"class.std::vector.0", %"class.std::__cxx11::list", %"class.std::vector.8", ptr, ptr, ptr, ptr, ptr, ptr }
%"struct.p2t::SweepContext::Basin" = type <{ ptr, ptr, ptr, double, i8, [7 x i8] }>
%"struct.p2t::SweepContext::EdgeEvent" = type <{ ptr, i8, [7 x i8] }>
%"class.std::vector.0" = type { %"struct.std::_Vector_base.1" }
%"struct.std::_Vector_base.1" = type { %"struct.std::_Vector_base<p2t::Triangle *, std::allocator<p2t::Triangle *>>::_Vector_impl" }
%"struct.std::_Vector_base<p2t::Triangle *, std::allocator<p2t::Triangle *>>::_Vector_impl" = type { %"struct.std::_Vector_base<p2t::Triangle *, std::allocator<p2t::Triangle *>>::_Vector_impl_data" }
%"struct.std::_Vector_base<p2t::Triangle *, std::allocator<p2t::Triangle *>>::_Vector_impl_data" = type { ptr, ptr, ptr }
%"class.std::__cxx11::list" = type { %"class.std::__cxx11::_List_base" }
%"class.std::__cxx11::_List_base" = type { %"struct.std::__cxx11::_List_base<p2t::Triangle *, std::allocator<p2t::Triangle *>>::_List_impl" }
%"struct.std::__cxx11::_List_base<p2t::Triangle *, std::allocator<p2t::Triangle *>>::_List_impl" = type { %"struct.std::__detail::_List_node_header" }
%"struct.std::__detail::_List_node_header" = type { %"struct.std::__detail::_List_node_base", i64 }
%"struct.std::__detail::_List_node_base" = type { ptr, ptr }
%"class.std::vector.8" = type { %"struct.std::_Vector_base.9" }
%"struct.std::_Vector_base.9" = type { %"struct.std::_Vector_base<p2t::Point *, std::allocator<p2t::Point *>>::_Vector_impl" }
%"struct.std::_Vector_base<p2t::Point *, std::allocator<p2t::Point *>>::_Vector_impl" = type { %"struct.std::_Vector_base<p2t::Point *, std::allocator<p2t::Point *>>::_Vector_impl_data" }
%"struct.std::_Vector_base<p2t::Point *, std::allocator<p2t::Point *>>::_Vector_impl_data" = type { ptr, ptr, ptr }
%"struct.p2t::Edge" = type { ptr, ptr }

; Function Attrs: mustprogress nounwind uwtable
define linkonce_odr noundef i32 @_ZSt10fpclassifyd(double noundef %0) #2 comdat {
  %2 = alloca double, align 8
  store double %0, ptr %2, align 8
  %3 = load double, ptr %2, align 8
  %4 = fcmp oeq double %3, 0.000000e+00
  br i1 %4, label %5, label %7

5:                                                ; preds = %12, %9, %7, %1
  %6 = phi i32 [ 2, %1 ], [ 0, %7 ], [ 1, %9 ], [ %14, %12 ]
  ret i32 %6

7:                                                ; preds = %1
  %8 = fcmp uno double %3, %3
  br i1 %8, label %5, label %9

9:                                                ; preds = %7
  %10 = call double @llvm.fabs.f64(double %3) #15
  %11 = fcmp oeq double %10, 0x7FF0000000000000
  br i1 %11, label %5, label %12

12:                                               ; preds = %9
  %13 = fcmp uge double %10, 0x10000000000000
  %14 = select i1 %13, i32 4, i32 3
  br label %5
}

; Function Attrs: mustprogress uwtable
define hidden noundef i32 @_ZN3p2t8Orient2dERKNS_5PointES2_S2_(ptr noundef nonnull align 8 dereferenceable(40) %0, ptr noundef nonnull align 8 dereferenceable(40) %1, ptr noundef nonnull align 8 dereferenceable(40) %2) #0 {
  %4 = alloca i32, align 4
  %5 = alloca ptr, align 8
  %6 = alloca ptr, align 8
  %7 = alloca ptr, align 8
  %8 = alloca double, align 8
  %9 = alloca double, align 8
  %10 = alloca double, align 8
  %11 = alloca i32, align 4
  store ptr %0, ptr %5, align 8
  store ptr %1, ptr %6, align 8
  store ptr %2, ptr %7, align 8
  call void @llvm.lifetime.start.p0(i64 8, ptr %8) #14
  %12 = load ptr, ptr %5, align 8
  %13 = getelementptr inbounds nuw %"struct.p2t::Point", ptr %12, i32 0, i32 0
  %14 = load double, ptr %13, align 8
  %15 = load ptr, ptr %7, align 8
  %16 = getelementptr inbounds nuw %"struct.p2t::Point", ptr %15, i32 0, i32 0
  %17 = load double, ptr %16, align 8
  %18 = fsub double %14, %17
  %19 = load ptr, ptr %6, align 8
  %20 = getelementptr inbounds nuw %"struct.p2t::Point", ptr %19, i32 0, i32 1
  %21 = load double, ptr %20, align 8
  %22 = load ptr, ptr %7, align 8
  %23 = getelementptr inbounds nuw %"struct.p2t::Point", ptr %22, i32 0, i32 1
  %24 = load double, ptr %23, align 8
  %25 = fsub double %21, %24
  %26 = fmul double %18, %25
  store double %26, ptr %8, align 8
  call void @llvm.lifetime.start.p0(i64 8, ptr %9) #14
  %27 = load ptr, ptr %5, align 8
  %28 = getelementptr inbounds nuw %"struct.p2t::Point", ptr %27, i32 0, i32 1
  %29 = load double, ptr %28, align 8
  %30 = load ptr, ptr %7, align 8
  %31 = getelementptr inbounds nuw %"struct.p2t::Point", ptr %30, i32 0, i32 1
  %32 = load double, ptr %31, align 8
  %33 = fsub double %29, %32
  %34 = load ptr, ptr %6, align 8
  %35 = getelementptr inbounds nuw %"struct.p2t::Point", ptr %34, i32 0, i32 0
  %36 = load double, ptr %35, align 8
  %37 = load ptr, ptr %7, align 8
  %38 = getelementptr inbounds nuw %"struct.p2t::Point", ptr %37, i32 0, i32 0
  %39 = load double, ptr %38, align 8
  %40 = fsub double %36, %39
  %41 = fmul double %33, %40
  store double %41, ptr %9, align 8
  call void @llvm.lifetime.start.p0(i64 8, ptr %10) #14
  %42 = load double, ptr %8, align 8
  %43 = load double, ptr %9, align 8
  %44 = fsub double %42, %43
  store double %44, ptr %10, align 8
  %45 = load double, ptr %10, align 8
  %46 = call noundef i32 @_ZSt10fpclassifyd(double noundef %45)
  %47 = icmp eq i32 %46, 2
  br i1 %47, label %48, label %49

48:                                               ; preds = %3
  store i32 2, ptr %4, align 4
  store i32 1, ptr %11, align 4
  br label %55

49:                                               ; preds = %3
  %50 = load double, ptr %10, align 8
  %51 = fcmp ogt double %50, 0.000000e+00
  br i1 %51, label %52, label %53

52:                                               ; preds = %49
  store i32 1, ptr %4, align 4
  store i32 1, ptr %11, align 4
  br label %55

53:                                               ; preds = %49
  br label %54

54:                                               ; preds = %53
  store i32 0, ptr %4, align 4
  store i32 1, ptr %11, align 4
  br label %55

55:                                               ; preds = %54, %52, %48
  call void @llvm.lifetime.end.p0(i64 8, ptr %10) #14
  call void @llvm.lifetime.end.p0(i64 8, ptr %9) #14
  call void @llvm.lifetime.end.p0(i64 8, ptr %8) #14
  %56 = load i32, ptr %4, align 4
  ret i32 %56
}

; Function Attrs: mustprogress uwtable
define hidden void @_ZN3p2t5Sweep22FillLeftAboveEdgeEventERNS_12SweepContextEPNS_4EdgeEPNS_4NodeE(ptr noundef nonnull align 8 dereferenceable(24) %0, ptr noundef nonnull align 8 dereferenceable(200) %1, ptr noundef %2, ptr noundef %3) #0 align 2 {
  %5 = alloca ptr, align 8
  %6 = alloca ptr, align 8
  %7 = alloca ptr, align 8
  %8 = alloca ptr, align 8
  store ptr %0, ptr %5, align 8
  store ptr %1, ptr %6, align 8
  store ptr %2, ptr %7, align 8
  store ptr %3, ptr %8, align 8
  %9 = load ptr, ptr %5, align 8
  br label %10

10:                                               ; preds = %46, %4
  %11 = load ptr, ptr %8, align 8
  %12 = getelementptr inbounds nuw %"struct.p2t::Node", ptr %11, i32 0, i32 3
  %13 = load ptr, ptr %12, align 8
  %14 = getelementptr inbounds nuw %"struct.p2t::Node", ptr %13, i32 0, i32 0
  %15 = load ptr, ptr %14, align 8
  %16 = getelementptr inbounds nuw %"struct.p2t::Point", ptr %15, i32 0, i32 0
  %17 = load double, ptr %16, align 8
  %18 = load ptr, ptr %7, align 8
  %19 = getelementptr inbounds nuw %"struct.p2t::Edge", ptr %18, i32 0, i32 0
  %20 = load ptr, ptr %19, align 8
  %21 = getelementptr inbounds nuw %"struct.p2t::Point", ptr %20, i32 0, i32 0
  %22 = load double, ptr %21, align 8
  %23 = fcmp ogt double %17, %22
  br i1 %23, label %24, label %47

24:                                               ; preds = %10
  %25 = load ptr, ptr %7, align 8
  %26 = getelementptr inbounds nuw %"struct.p2t::Edge", ptr %25, i32 0, i32 1
  %27 = load ptr, ptr %26, align 8
  %28 = load ptr, ptr %8, align 8
  %29 = getelementptr inbounds nuw %"struct.p2t::Node", ptr %28, i32 0, i32 3
  %30 = load ptr, ptr %29, align 8
  %31 = getelementptr inbounds nuw %"struct.p2t::Node", ptr %30, i32 0, i32 0
  %32 = load ptr, ptr %31, align 8
  %33 = load ptr, ptr %7, align 8
  %34 = getelementptr inbounds nuw %"struct.p2t::Edge", ptr %33, i32 0, i32 0
  %35 = load ptr, ptr %34, align 8
  %36 = call noundef i32 @_ZN3p2t8Orient2dERKNS_5PointES2_S2_(ptr noundef nonnull align 8 dereferenceable(40) %27, ptr noundef nonnull align 8 dereferenceable(40) %32, ptr noundef nonnull align 8 dereferenceable(40) %35)
  %37 = icmp eq i32 %36, 0
  br i1 %37, label %38, label %42

38:                                               ; preds = %24
  %39 = load ptr, ptr %6, align 8
  %40 = load ptr, ptr %7, align 8
  %41 = load ptr, ptr %8, align 8
  call void @_ZN3p2t5Sweep22FillLeftBelowEdgeEventERNS_12SweepContextEPNS_4EdgeERNS_4NodeE(ptr noundef nonnull align 8 dereferenceable(24) %9, ptr noundef nonnull align 8 dereferenceable(200) %39, ptr noundef %40, ptr noundef nonnull align 8 dereferenceable(40) %41)
  br label %46

42:                                               ; preds = %24
  %43 = load ptr, ptr %8, align 8
  %44 = getelementptr inbounds nuw %"struct.p2t::Node", ptr %43, i32 0, i32 3
  %45 = load ptr, ptr %44, align 8
  store ptr %45, ptr %8, align 8
  br label %46

46:                                               ; preds = %42, %38
  br label %10, !llvm.loop !14

47:                                               ; preds = %10
  ret void
}

; Function Attrs: mustprogress uwtable
define hidden void @_ZN3p2t5Sweep23FillRightAboveEdgeEventERNS_12SweepContextEPNS_4EdgeEPNS_4NodeE(ptr noundef nonnull align 8 dereferenceable(24) %0, ptr noundef nonnull align 8 dereferenceable(200) %1, ptr noundef %2, ptr noundef %3) #0 align 2 {
  %5 = alloca ptr, align 8
  %6 = alloca ptr, align 8
  %7 = alloca ptr, align 8
  %8 = alloca ptr, align 8
  store ptr %0, ptr %5, align 8
  store ptr %1, ptr %6, align 8
  store ptr %2, ptr %7, align 8
  store ptr %3, ptr %8, align 8
  %9 = load ptr, ptr %5, align 8
  br label %10

10:                                               ; preds = %46, %4
  %11 = load ptr, ptr %8, align 8
  %12 = getelementptr inbounds nuw %"struct.p2t::Node", ptr %11, i32 0, i32 2
  %13 = load ptr, ptr %12, align 8
  %14 = getelementptr inbounds nuw %"struct.p2t::Node", ptr %13, i32 0, i32 0
  %15 = load ptr, ptr %14, align 8
  %16 = getelementptr inbounds nuw %"struct.p2t::Point", ptr %15, i32 0, i32 0
  %17 = load double, ptr %16, align 8
  %18 = load ptr, ptr %7, align 8
  %19 = getelementptr inbounds nuw %"struct.p2t::Edge", ptr %18, i32 0, i32 0
  %20 = load ptr, ptr %19, align 8
  %21 = getelementptr inbounds nuw %"struct.p2t::Point", ptr %20, i32 0, i32 0
  %22 = load double, ptr %21, align 8
  %23 = fcmp olt double %17, %22
  br i1 %23, label %24, label %47

24:                                               ; preds = %10
  %25 = load ptr, ptr %7, align 8
  %26 = getelementptr inbounds nuw %"struct.p2t::Edge", ptr %25, i32 0, i32 1
  %27 = load ptr, ptr %26, align 8
  %28 = load ptr, ptr %8, align 8
  %29 = getelementptr inbounds nuw %"struct.p2t::Node", ptr %28, i32 0, i32 2
  %30 = load ptr, ptr %29, align 8
  %31 = getelementptr inbounds nuw %"struct.p2t::Node", ptr %30, i32 0, i32 0
  %32 = load ptr, ptr %31, align 8
  %33 = load ptr, ptr %7, align 8
  %34 = getelementptr inbounds nuw %"struct.p2t::Edge", ptr %33, i32 0, i32 0
  %35 = load ptr, ptr %34, align 8
  %36 = call noundef i32 @_ZN3p2t8Orient2dERKNS_5PointES2_S2_(ptr noundef nonnull align 8 dereferenceable(40) %27, ptr noundef nonnull align 8 dereferenceable(40) %32, ptr noundef nonnull align 8 dereferenceable(40) %35)
  %37 = icmp eq i32 %36, 1
  br i1 %37, label %38, label %42

38:                                               ; preds = %24
  %39 = load ptr, ptr %6, align 8
  %40 = load ptr, ptr %7, align 8
  %41 = load ptr, ptr %8, align 8
  call void @_ZN3p2t5Sweep23FillRightBelowEdgeEventERNS_12SweepContextEPNS_4EdgeERNS_4NodeE(ptr noundef nonnull align 8 dereferenceable(24) %9, ptr noundef nonnull align 8 dereferenceable(200) %39, ptr noundef %40, ptr noundef nonnull align 8 dereferenceable(40) %41)
  br label %46

42:                                               ; preds = %24
  %43 = load ptr, ptr %8, align 8
  %44 = getelementptr inbounds nuw %"struct.p2t::Node", ptr %43, i32 0, i32 2
  %45 = load ptr, ptr %44, align 8
  store ptr %45, ptr %8, align 8
  br label %46

46:                                               ; preds = %42, %38
  br label %10, !llvm.loop !13

47:                                               ; preds = %10
  ret void
}

; Function Attrs: mustprogress uwtable
define hidden void @_ZN3p2t5Sweep13FillEdgeEventERNS_12SweepContextEPNS_4EdgeEPNS_4NodeE(ptr noundef nonnull align 8 dereferenceable(24) %0, ptr noundef nonnull align 8 dereferenceable(200) %1, ptr noundef %2, ptr noundef %3) #0 align 2 {
  %5 = alloca ptr, align 8
  %6 = alloca ptr, align 8
  %7 = alloca ptr, align 8
  %8 = alloca ptr, align 8
  store ptr %0, ptr %5, align 8
  store ptr %1, ptr %6, align 8
  store ptr %2, ptr %7, align 8
  store ptr %3, ptr %8, align 8
  %9 = load ptr, ptr %5, align 8
  %10 = load ptr, ptr %6, align 8
  %11 = getelementptr inbounds nuw %"class.p2t::SweepContext", ptr %10, i32 0, i32 2
  %12 = getelementptr inbounds nuw %"struct.p2t::SweepContext::EdgeEvent", ptr %11, i32 0, i32 1
  %13 = load i8, ptr %12, align 8, !range !8, !noundef !9
  %14 = trunc i8 %13 to i1
  br i1 %14, label %15, label %19

15:                                               ; preds = %4
  %16 = load ptr, ptr %6, align 8
  %17 = load ptr, ptr %7, align 8
  %18 = load ptr, ptr %8, align 8
  call void @_ZN3p2t5Sweep23FillRightAboveEdgeEventERNS_12SweepContextEPNS_4EdgeEPNS_4NodeE(ptr noundef nonnull align 8 dereferenceable(24) %9, ptr noundef nonnull align 8 dereferenceable(200) %16, ptr noundef %17, ptr noundef %18)
  br label %23

19:                                               ; preds = %4
  %20 = load ptr, ptr %6, align 8
  %21 = load ptr, ptr %7, align 8
  %22 = load ptr, ptr %8, align 8
  call void @_ZN3p2t5Sweep22FillLeftAboveEdgeEventERNS_12SweepContextEPNS_4EdgeEPNS_4NodeE(ptr noundef nonnull align 8 dereferenceable(24) %9, ptr noundef nonnull align 8 dereferenceable(200) %20, ptr noundef %21, ptr noundef %22)
  br label %23

23:                                               ; preds = %19, %15
  ret void
}