; Function Attrs: mustprogress uwtable
define hidden void @_ZN3p2t5Sweep13FillEdgeEventERNS_12SweepContextEPNS_4EdgeEPNS_4NodeE(ptr noundef nonnull align 8 dereferenceable(24) %0, ptr noundef nonnull align 8 dereferenceable(200) %1, ptr noundef readonly captures(none) %2, ptr noundef readonly captures(none) %3) local_unnamed_addr #2 align 2 {
  %5 = getelementptr inbounds nuw i8, ptr %1, i64 72
  %6 = load i8, ptr %5, align 8, !range !6, !noundef !7
  %7 = trunc nuw i8 %6 to i1
  %8 = load ptr, ptr %2, align 8
  %9 = load double, ptr %8, align 8
  br i1 %7, label %10, label %47

10:                                               ; preds = %4
  %11 = getelementptr inbounds nuw i8, ptr %3, i64 16
  %12 = load ptr, ptr %11, align 8
  %13 = load ptr, ptr %12, align 8
  %14 = load double, ptr %13, align 8
  %15 = fcmp olt double %14, %9
  br i1 %15, label %.lr.ph.i, label %_ZN3p2t5Sweep23FillRightAboveEdgeEventERNS_12SweepContextEPNS_4EdgeEPNS_4NodeE.exit

.lr.ph.i:                                         ; preds = %10
  %16 = getelementptr inbounds nuw i8, ptr %2, i64 8
  br label %17

17:                                               ; preds = %39, %.lr.ph.i
  %18 = phi double [ %9, %.lr.ph.i ], [ %40, %39 ]
  %19 = phi ptr [ %8, %.lr.ph.i ], [ %41, %39 ]
  %20 = phi double [ %14, %.lr.ph.i ], [ %45, %39 ]
  %21 = phi ptr [ %13, %.lr.ph.i ], [ %44, %39 ]
  %22 = phi ptr [ %12, %.lr.ph.i ], [ %43, %39 ]
  %.010.i = phi ptr [ %3, %.lr.ph.i ], [ %.1.i, %39 ]
  %23 = load ptr, ptr %16, align 8
  %24 = load double, ptr %23, align 8
  %25 = fsub double %24, %18
  %26 = getelementptr inbounds nuw i8, ptr %21, i64 8
  %27 = load double, ptr %26, align 8
  %28 = getelementptr inbounds nuw i8, ptr %19, i64 8
  %29 = load double, ptr %28, align 8
  %30 = fsub double %27, %29
  %31 = fmul double %25, %30
  %32 = getelementptr inbounds nuw i8, ptr %23, i64 8
  %33 = load double, ptr %32, align 8
  %34 = fsub double %33, %29
  %35 = fsub double %20, %18
  %36 = fmul double %35, %34
  %37 = fcmp ogt double %31, %36
  br i1 %37, label %38, label %39

38:                                               ; preds = %17
  tail call void @_ZN3p2t5Sweep23FillRightBelowEdgeEventERNS_12SweepContextEPNS_4EdgeERNS_4NodeE(ptr noundef nonnull align 8 dereferenceable(24) %0, ptr noundef nonnull align 8 dereferenceable(200) %1, ptr noundef nonnull readonly %2, ptr noundef nonnull align 8 dereferenceable(40) %.010.i)
  %.pre.i = load ptr, ptr %2, align 8
  %.pre11.i = load double, ptr %.pre.i, align 8
  br label %39

39:                                               ; preds = %38, %17
  %40 = phi double [ %.pre11.i, %38 ], [ %18, %17 ]
  %41 = phi ptr [ %.pre.i, %38 ], [ %19, %17 ]
  %.1.i = phi ptr [ %.010.i, %38 ], [ %22, %17 ]
  %42 = getelementptr inbounds nuw i8, ptr %.1.i, i64 16
  %43 = load ptr, ptr %42, align 8
  %44 = load ptr, ptr %43, align 8
  %45 = load double, ptr %44, align 8
  %46 = fcmp olt double %45, %40
  br i1 %46, label %17, label %_ZN3p2t5Sweep23FillRightAboveEdgeEventERNS_12SweepContextEPNS_4EdgeEPNS_4NodeE.exit, !llvm.loop !8

47:                                               ; preds = %4
  %48 = getelementptr inbounds nuw i8, ptr %3, i64 24
  %49 = load ptr, ptr %48, align 8
  %50 = load ptr, ptr %49, align 8
  %51 = load double, ptr %50, align 8
  %52 = fcmp ogt double %51, %9
  br i1 %52, label %.lr.ph.i8, label %_ZN3p2t5Sweep23FillRightAboveEdgeEventERNS_12SweepContextEPNS_4EdgeEPNS_4NodeE.exit

.lr.ph.i8:                                        ; preds = %47
  %53 = getelementptr inbounds nuw i8, ptr %2, i64 8
  br label %54

54:                                               ; preds = %77, %.lr.ph.i8
  %55 = phi double [ %9, %.lr.ph.i8 ], [ %78, %77 ]
  %56 = phi ptr [ %8, %.lr.ph.i8 ], [ %79, %77 ]
  %57 = phi double [ %51, %.lr.ph.i8 ], [ %83, %77 ]
  %58 = phi ptr [ %50, %.lr.ph.i8 ], [ %82, %77 ]
  %59 = phi ptr [ %49, %.lr.ph.i8 ], [ %81, %77 ]
  %.010.i9 = phi ptr [ %3, %.lr.ph.i8 ], [ %.1.i10, %77 ]
  %60 = load ptr, ptr %53, align 8
  %61 = load double, ptr %60, align 8
  %62 = fsub double %61, %55
  %63 = getelementptr inbounds nuw i8, ptr %58, i64 8
  %64 = load double, ptr %63, align 8
  %65 = getelementptr inbounds nuw i8, ptr %56, i64 8
  %66 = load double, ptr %65, align 8
  %67 = fsub double %64, %66
  %68 = fmul double %62, %67
  %69 = getelementptr inbounds nuw i8, ptr %60, i64 8
  %70 = load double, ptr %69, align 8
  %71 = fsub double %70, %66
  %72 = fsub double %57, %55
  %73 = fmul double %72, %71
  %74 = fsub double %68, %73
  %75 = fcmp ult double %74, 0.000000e+00
  br i1 %75, label %76, label %77

76:                                               ; preds = %54
  tail call void @_ZN3p2t5Sweep22FillLeftBelowEdgeEventERNS_12SweepContextEPNS_4EdgeERNS_4NodeE(ptr noundef nonnull align 8 dereferenceable(24) %0, ptr noundef nonnull align 8 dereferenceable(200) %1, ptr noundef nonnull readonly %2, ptr noundef nonnull align 8 dereferenceable(40) %.010.i9)
  %.pre.i11 = load ptr, ptr %2, align 8
  %.pre11.i12 = load double, ptr %.pre.i11, align 8
  br label %77

77:                                               ; preds = %76, %54
  %78 = phi double [ %.pre11.i12, %76 ], [ %55, %54 ]
  %79 = phi ptr [ %.pre.i11, %76 ], [ %56, %54 ]
  %.1.i10 = phi ptr [ %.010.i9, %76 ], [ %59, %54 ]
  %80 = getelementptr inbounds nuw i8, ptr %.1.i10, i64 24
  %81 = load ptr, ptr %80, align 8
  %82 = load ptr, ptr %81, align 8
  %83 = load double, ptr %82, align 8
  %84 = fcmp ogt double %83, %78
  br i1 %84, label %54, label %_ZN3p2t5Sweep23FillRightAboveEdgeEventERNS_12SweepContextEPNS_4EdgeEPNS_4NodeE.exit, !llvm.loop !9

_ZN3p2t5Sweep23FillRightAboveEdgeEventERNS_12SweepContextEPNS_4EdgeEPNS_4NodeE.exit: ; preds = %77, %39, %47, %10
  ret void
}